; Function Attrs: inlinehint nounwind uwtable
define internal fastcc void @zend_optimizer_add_literal_string(ptr noundef captures(none) %0, ptr noundef %1) unnamed_addr #7 {
  %3 = getelementptr inbounds nuw i8, ptr %1, i64 4
  %4 = load i32, ptr %3, align 4, !tbaa !20
  %5 = getelementptr inbounds nuw i8, ptr %1, i64 8
  %6 = load i64, ptr %5, align 8, !tbaa !75
  %.not.i = icmp eq i64 %6, 0
  br i1 %.not.i, label %7, label %zend_string_hash_val.exit

7:                                                ; preds = %2
  %8 = tail call i64 @zend_string_hash_func(ptr noundef nonnull %1) #20
  br label %zend_string_hash_val.exit

zend_string_hash_val.exit:                        ; preds = %2, %7
  %9 = and i32 %4, 64
  %.not = icmp eq i32 %9, 0
  %10 = select i1 %.not, i32 262, i32 6
  %11 = getelementptr inbounds nuw i8, ptr %0, i64 184
  %12 = load i32, ptr %11, align 8, !tbaa !95
  %13 = add nsw i32 %12, 1
  store i32 %13, ptr %11, align 8, !tbaa !95
  %14 = getelementptr inbounds nuw i8, ptr %0, i64 192
  %15 = load ptr, ptr %14, align 8, !tbaa !87
  %16 = sext i32 %13 to i64
  %17 = shl nsw i64 %16, 4
  %18 = tail call ptr @_erealloc(ptr noundef %15, i64 noundef %17) #21
  store ptr %18, ptr %14, align 8, !tbaa !87
  %19 = sext i32 %12 to i64
  %20 = getelementptr inbounds %struct._zval_struct, ptr %18, i64 %19
  store ptr %1, ptr %20, align 8, !tbaa !20
  %21 = getelementptr inbounds nuw i8, ptr %20, i64 8
  store i32 %10, ptr %21, align 8, !tbaa !20
  %22 = load ptr, ptr %14, align 8, !tbaa !87
  %23 = getelementptr inbounds %struct._zval_struct, ptr %22, i64 %19, i32 2
  store i32 0, ptr %23, align 4, !tbaa !20
  ret void
}